target datalayout = "e-m:e-p270:32:32-p271:32:32-p272:64:64-i64:64-i128:128-f80:128-n8:16:32:64-S128"
target triple = "x86_64-pc-linux-gnu"

%struct.Abc_Ntk_t_ = type { i32, i32, ptr, ptr, ptr, ptr, ptr, ptr, ptr, ptr, ptr, ptr, ptr, [11 x i32], i32, i32, i32, i32, ptr, i32, ptr, ptr, i32, i32, i32, double, i32, %struct.Vec_Int_t_, ptr, ptr, ptr, ptr, ptr, float, i32, ptr, ptr, ptr, ptr, ptr, ptr, ptr, ptr, ptr, ptr, ptr, ptr, ptr, ptr, ptr, ptr, ptr, ptr, ptr, ptr, ptr, ptr }
%struct.Vec_Int_t_ = type { i32, i32, ptr }
%struct.Vec_Ptr_t_ = type { i32, i32, ptr }
%struct.Io_MvVar_t_ = type { i32, ptr }
%struct.Vec_Att_t_ = type { i32, ptr, ptr, ptr, ptr, ptr }

; Function Attrs: inlinehint nounwind uwtable
define internal ptr @Vec_PtrEntry(ptr noundef %0, i32 noundef %1) #4 {
  %3 = alloca ptr, align 8
  %4 = alloca i32, align 4
  store ptr %0, ptr %3, align 8, !tbaa !52
  store i32 %1, ptr %4, align 4, !tbaa !8
  %5 = load ptr, ptr %3, align 8, !tbaa !52
  %6 = getelementptr inbounds nuw %struct.Vec_Ptr_t_, ptr %5, i32 0, i32 2
  %7 = load ptr, ptr %6, align 8, !tbaa !119
  %8 = load i32, ptr %4, align 4, !tbaa !8
  %9 = sext i32 %8 to i64
  %10 = getelementptr inbounds ptr, ptr %7, i64 %9
  %11 = load ptr, ptr %10, align 8, !tbaa !120
  ret ptr %11
}

; Function Attrs: inlinehint nounwind uwtable
define internal ptr @Vec_AttMan(ptr noundef %0) #4 {
  %2 = alloca ptr, align 8
  store ptr %0, ptr %2, align 8, !tbaa !194
  %3 = load ptr, ptr %2, align 8, !tbaa !194
  %4 = getelementptr inbounds nuw %struct.Vec_Att_t_, ptr %3, i32 0, i32 2
  %5 = load ptr, ptr %4, align 8, !tbaa !196
  ret ptr %5
}

; Function Attrs: inlinehint nounwind uwtable
define internal ptr @Abc_NtkMvVar(ptr noundef %0) #4 {
  %2 = alloca ptr, align 8
  store ptr %0, ptr %2, align 8, !tbaa !30
  %3 = load ptr, ptr %2, align 8, !tbaa !30
  %4 = getelementptr inbounds nuw %struct.Abc_Ntk_t_, ptr %3, i32 0, i32 53
  %5 = load ptr, ptr %4, align 8, !tbaa !193
  %6 = call ptr @Vec_PtrEntry(ptr noundef %5, i32 noundef 12)
  ret ptr %6
}

; Function Attrs: inlinehint nounwind uwtable
define internal ptr @Abc_NtkMvVarMan(ptr noundef %0) #4 {
  %2 = alloca ptr, align 8
  store ptr %0, ptr %2, align 8, !tbaa !30
  %3 = load ptr, ptr %2, align 8, !tbaa !30
  %4 = call ptr @Abc_NtkMvVar(ptr noundef %3)
  %5 = icmp ne ptr %4, null
  br i1 %5, label %6, label %10

6:                                                ; preds = %1
  %7 = load ptr, ptr %2, align 8, !tbaa !30
  %8 = call ptr @Abc_NtkMvVar(ptr noundef %7)
  %9 = call ptr @Vec_AttMan(ptr noundef %8)
  br label %11

10:                                               ; preds = %1
  br label %11

11:                                               ; preds = %10, %6
  %12 = phi ptr [ %9, %6 ], [ null, %10 ]
  ret ptr %12
}

; Function Attrs: nounwind uwtable
define internal ptr @Abc_NtkMvVarDup(ptr noundef %0, ptr noundef %1) #0 {
  %3 = alloca ptr, align 8
  %4 = alloca ptr, align 8
  %5 = alloca ptr, align 8
  %6 = alloca ptr, align 8
  %7 = alloca ptr, align 8
  %8 = alloca i32, align 4
  %9 = alloca i32, align 4
  store ptr %0, ptr %4, align 8, !tbaa !30
  store ptr %1, ptr %5, align 8, !tbaa !155
  call void @llvm.lifetime.start.p0(i64 8, ptr %6) #12
  call void @llvm.lifetime.start.p0(i64 8, ptr %7) #12
  call void @llvm.lifetime.start.p0(i64 4, ptr %8) #12
  %10 = load ptr, ptr %5, align 8, !tbaa !155
  %11 = icmp eq ptr %10, null
  br i1 %11, label %12, label %13

12:                                               ; preds = %2
  store ptr null, ptr %3, align 8
  store i32 1, ptr %9, align 4
  br label %87

13:                                               ; preds = %2
  %14 = load ptr, ptr %4, align 8, !tbaa !30
  %15 = call ptr @Abc_NtkMvVarMan(ptr noundef %14)
  store ptr %15, ptr %6, align 8, !tbaa !157
  %16 = load ptr, ptr %6, align 8, !tbaa !157
  %17 = call ptr @Mem_FlexEntryFetch(ptr noundef %16, i32 noundef 16)
  store ptr %17, ptr %7, align 8, !tbaa !155
  %18 = load ptr, ptr %5, align 8, !tbaa !155
  %19 = getelementptr inbounds nuw %struct.Io_MvVar_t_, ptr %18, i32 0, i32 0
  %20 = load i32, ptr %19, align 8, !tbaa !159
  %21 = load ptr, ptr %7, align 8, !tbaa !155
  %22 = getelementptr inbounds nuw %struct.Io_MvVar_t_, ptr %21, i32 0, i32 0
  store i32 %20, ptr %22, align 8, !tbaa !159
  %23 = load ptr, ptr %7, align 8, !tbaa !155
  %24 = getelementptr inbounds nuw %struct.Io_MvVar_t_, ptr %23, i32 0, i32 1
  store ptr null, ptr %24, align 8, !tbaa !162
  %25 = load ptr, ptr %5, align 8, !tbaa !155
  %26 = getelementptr inbounds nuw %struct.Io_MvVar_t_, ptr %25, i32 0, i32 1
  %27 = load ptr, ptr %26, align 8, !tbaa !162
  %28 = icmp eq ptr %27, null
  br i1 %28, label %29, label %31

29:                                               ; preds = %13
  %30 = load ptr, ptr %7, align 8, !tbaa !155
  store ptr %30, ptr %3, align 8
  store i32 1, ptr %9, align 4
  br label %87

31:                                               ; preds = %13
  %32 = load ptr, ptr %6, align 8, !tbaa !157
  %33 = load ptr, ptr %5, align 8, !tbaa !155
  %34 = getelementptr inbounds nuw %struct.Io_MvVar_t_, ptr %33, i32 0, i32 0
  %35 = load i32, ptr %34, align 8, !tbaa !159
  %36 = sext i32 %35 to i64
  %37 = mul i64 8, %36
  %38 = trunc i64 %37 to i32
  %39 = call ptr @Mem_FlexEntryFetch(ptr noundef %32, i32 noundef %38)
  %40 = load ptr, ptr %7, align 8, !tbaa !155
  %41 = getelementptr inbounds nuw %struct.Io_MvVar_t_, ptr %40, i32 0, i32 1
  store ptr %39, ptr %41, align 8, !tbaa !162
  store i32 0, ptr %8, align 4, !tbaa !8
  br label %42

42:                                               ; preds = %82, %31
  %43 = load i32, ptr %8, align 4, !tbaa !8
  %44 = load ptr, ptr %5, align 8, !tbaa !155
  %45 = getelementptr inbounds nuw %struct.Io_MvVar_t_, ptr %44, i32 0, i32 0
  %46 = load i32, ptr %45, align 8, !tbaa !159
  %47 = icmp slt i32 %43, %46
  br i1 %47, label %48, label %85

48:                                               ; preds = %42
  %49 = load ptr, ptr %6, align 8, !tbaa !157
  %50 = load ptr, ptr %5, align 8, !tbaa !155
  %51 = getelementptr inbounds nuw %struct.Io_MvVar_t_, ptr %50, i32 0, i32 1
  %52 = load ptr, ptr %51, align 8, !tbaa !162
  %53 = load i32, ptr %8, align 4, !tbaa !8
  %54 = sext i32 %53 to i64
  %55 = getelementptr inbounds ptr, ptr %52, i64 %54
  %56 = load ptr, ptr %55, align 8, !tbaa !3
  %57 = call i64 @strlen(ptr noundef %56) #13
  %58 = add i64 %57, 1
  %59 = trunc i64 %58 to i32
  %60 = call ptr @Mem_FlexEntryFetch(ptr noundef %49, i32 noundef %59)
  %61 = load ptr, ptr %7, align 8, !tbaa !155
  %62 = getelementptr inbounds nuw %struct.Io_MvVar_t_, ptr %61, i32 0, i32 1
  %63 = load ptr, ptr %62, align 8, !tbaa !162
  %64 = load i32, ptr %8, align 4, !tbaa !8
  %65 = sext i32 %64 to i64
  %66 = getelementptr inbounds ptr, ptr %63, i64 %65
  store ptr %60, ptr %66, align 8, !tbaa !3
  %67 = load ptr, ptr %7, align 8, !tbaa !155
  %68 = getelementptr inbounds nuw %struct.Io_MvVar_t_, ptr %67, i32 0, i32 1
  %69 = load ptr, ptr %68, align 8, !tbaa !162
  %70 = load i32, ptr %8, align 4, !tbaa !8
  %71 = sext i32 %70 to i64
  %72 = getelementptr inbounds ptr, ptr %69, i64 %71
  %73 = load ptr, ptr %72, align 8, !tbaa !3
  %74 = load ptr, ptr %5, align 8, !tbaa !155
  %75 = getelementptr inbounds nuw %struct.Io_MvVar_t_, ptr %74, i32 0, i32 1
  %76 = load ptr, ptr %75, align 8, !tbaa !162
  %77 = load i32, ptr %8, align 4, !tbaa !8
  %78 = sext i32 %77 to i64
  %79 = getelementptr inbounds ptr, ptr %76, i64 %78
  %80 = load ptr, ptr %79, align 8, !tbaa !3
  %81 = call ptr @strcpy(ptr noundef %73, ptr noundef %80) #12
  br label %82

82:                                               ; preds = %48
  %83 = load i32, ptr %8, align 4, !tbaa !8
  %84 = add nsw i32 %83, 1
  store i32 %84, ptr %8, align 4, !tbaa !8
  br label %42, !llvm.loop !204

85:                                               ; preds = %42
  %86 = load ptr, ptr %7, align 8, !tbaa !155
  store ptr %86, ptr %3, align 8
  store i32 1, ptr %9, align 4
  br label %87

87:                                               ; preds = %85, %29, %12
  call void @llvm.lifetime.end.p0(i64 4, ptr %8) #12
  call void @llvm.lifetime.end.p0(i64 8, ptr %7) #12
  call void @llvm.lifetime.end.p0(i64 8, ptr %6) #12
  %88 = load ptr, ptr %3, align 8
  ret ptr %88
}