; Function Attrs: nounwind uwtable
define internal fastcc noundef ptr @Abc_NtkMvVarDup(ptr noundef readonly captures(none) %0, ptr noundef readonly %1) unnamed_addr #0 {
  %3 = icmp eq ptr %1, null
  br i1 %3, label %.loopexit, label %4

4:                                                ; preds = %2
  %5 = getelementptr i8, ptr %0, i64 432
  %.val = load ptr, ptr %5, align 8, !tbaa !97
  %6 = getelementptr i8, ptr %.val, i64 8
  %.val.val = load ptr, ptr %6, align 8, !tbaa !10
  %7 = getelementptr i8, ptr %.val.val, i64 96
  %.val.val.val = load ptr, ptr %7, align 8, !tbaa !36
  %.not.i = icmp eq ptr %.val.val.val, null
  br i1 %.not.i, label %Abc_NtkMvVarMan.exit, label %8

8:                                                ; preds = %4
  %9 = getelementptr i8, ptr %.val.val.val, i64 16
  %.val3.i = load ptr, ptr %9, align 8, !tbaa !98
  br label %Abc_NtkMvVarMan.exit

Abc_NtkMvVarMan.exit:                             ; preds = %4, %8
  %10 = phi ptr [ %.val3.i, %8 ], [ null, %4 ]
  %11 = tail call ptr @Mem_FlexEntryFetch(ptr noundef %10, i32 noundef 16) #21
  %12 = load i32, ptr %1, align 8, !tbaa !100
  store i32 %12, ptr %11, align 8, !tbaa !100
  %13 = getelementptr inbounds nuw i8, ptr %11, i64 8
  store ptr null, ptr %13, align 8, !tbaa !103
  %14 = getelementptr inbounds nuw i8, ptr %1, i64 8
  %15 = load ptr, ptr %14, align 8, !tbaa !103
  %16 = icmp eq ptr %15, null
  br i1 %16, label %.loopexit, label %17

17:                                               ; preds = %Abc_NtkMvVarMan.exit
  %18 = shl i32 %12, 3
  %19 = tail call ptr @Mem_FlexEntryFetch(ptr noundef %10, i32 noundef %18) #21
  store ptr %19, ptr %13, align 8, !tbaa !103
  %20 = load i32, ptr %1, align 8, !tbaa !100
  %21 = icmp sgt i32 %20, 0
  br i1 %21, label %.lr.ph, label %.loopexit

.lr.ph:                                           ; preds = %17, %.lr.ph
  %indvars.iv = phi i64 [ %indvars.iv.next, %.lr.ph ], [ 0, %17 ]
  %22 = load ptr, ptr %14, align 8, !tbaa !103
  %23 = getelementptr inbounds nuw ptr, ptr %22, i64 %indvars.iv
  %24 = load ptr, ptr %23, align 8, !tbaa !104
  %25 = tail call i64 @strlen(ptr noundef nonnull dereferenceable(1) %24) #22
  %26 = trunc i64 %25 to i32
  %27 = add i32 %26, 1
  %28 = tail call ptr @Mem_FlexEntryFetch(ptr noundef %10, i32 noundef %27) #21
  %29 = load ptr, ptr %13, align 8, !tbaa !103
  %30 = getelementptr inbounds nuw ptr, ptr %29, i64 %indvars.iv
  store ptr %28, ptr %30, align 8, !tbaa !104
  %31 = load ptr, ptr %14, align 8, !tbaa !103
  %32 = getelementptr inbounds nuw ptr, ptr %31, i64 %indvars.iv
  %33 = load ptr, ptr %32, align 8, !tbaa !104
  %34 = tail call ptr @strcpy(ptr noundef nonnull dereferenceable(1) %28, ptr noundef nonnull dereferenceable(1) %33) #21
  %indvars.iv.next = add nuw nsw i64 %indvars.iv, 1
  %35 = load i32, ptr %1, align 8, !tbaa !100
  %36 = sext i32 %35 to i64
  %37 = icmp slt i64 %indvars.iv.next, %36
  br i1 %37, label %.lr.ph, label %.loopexit, !llvm.loop !190

.loopexit:                                        ; preds = %.lr.ph, %17, %Abc_NtkMvVarMan.exit, %2
  %.024 = phi ptr [ null, %2 ], [ %11, %Abc_NtkMvVarMan.exit ], [ %11, %17 ], [ %11, %.lr.ph ]
  ret ptr %.024
}